target datalayout = "e-m:e-p270:32:32-p271:32:32-p272:64:64-i64:64-i128:128-f80:128-n8:16:32:64-S128"
target triple = "x86_64-pc-linux-gnu"

%struct.ForEachState = type { ptr, i32 }
%struct.List = type { i32, i32, i32, ptr, [0 x %union.ListCell] }
%union.ListCell = type { ptr }
%struct.Node = type { i32 }
%struct.GroupingSet = type { i32, i32, ptr, i32 }
%struct.RowExpr = type { %struct.Expr, ptr, i32, i32, ptr, i32 }
%struct.Expr = type { i32 }

; Function Attrs: nounwind uwtable
define internal ptr @flatten_grouping_sets(ptr noundef %0, i1 noundef zeroext %1, ptr noundef %2) #0 {
  %4 = alloca ptr, align 8
  %5 = alloca ptr, align 8
  %6 = alloca i8, align 1
  %7 = alloca ptr, align 8
  %8 = alloca ptr, align 8
  %9 = alloca i32, align 4
  %10 = alloca ptr, align 8
  %11 = alloca ptr, align 8
  %12 = alloca ptr, align 8
  %13 = alloca %struct.ForEachState, align 8
  %14 = alloca ptr, align 8
  %15 = alloca ptr, align 8
  %16 = alloca ptr, align 8
  %17 = alloca ptr, align 8
  %18 = alloca %struct.ForEachState, align 8
  %19 = alloca ptr, align 8
  store ptr %0, ptr %5, align 8
  %20 = zext i1 %1 to i8
  store i8 %20, ptr %6, align 1
  store ptr %2, ptr %7, align 8
  call void @check_stack_depth()
  %21 = load ptr, ptr %5, align 8
  %22 = icmp eq ptr %21, null
  br i1 %22, label %23, label %24

23:                                               ; preds = %3
  store ptr null, ptr %4, align 8
  br label %202

24:                                               ; preds = %3
  %25 = load ptr, ptr %5, align 8
  %26 = getelementptr inbounds nuw %struct.Node, ptr %25, i32 0, i32 0
  %27 = load i32, ptr %26, align 4
  switch i32 %27, label %199 [
    i32 36, label %28
    i32 107, label %43
    i32 1, label %138
  ]

28:                                               ; preds = %24
  call void @llvm.lifetime.start.p0(i64 8, ptr %8) #8
  %29 = load ptr, ptr %5, align 8
  store ptr %29, ptr %8, align 8
  %30 = load ptr, ptr %8, align 8
  %31 = getelementptr inbounds nuw %struct.RowExpr, ptr %30, i32 0, i32 3
  %32 = load i32, ptr %31, align 4
  %33 = icmp eq i32 %32, 2
  br i1 %33, label %34, label %39

34:                                               ; preds = %28
  %35 = load ptr, ptr %8, align 8
  %36 = getelementptr inbounds nuw %struct.RowExpr, ptr %35, i32 0, i32 1
  %37 = load ptr, ptr %36, align 8
  %38 = call ptr @flatten_grouping_sets(ptr noundef %37, i1 noundef zeroext false, ptr noundef null)
  store ptr %38, ptr %4, align 8
  store i32 1, ptr %9, align 4
  br label %40

39:                                               ; preds = %28
  store i32 0, ptr %9, align 4
  br label %40

40:                                               ; preds = %39, %34
  call void @llvm.lifetime.end.p0(i64 8, ptr %8) #8
  %41 = load i32, ptr %9, align 4
  switch i32 %41, label %204 [
    i32 0, label %42
    i32 1, label %202
  ]

42:                                               ; preds = %40
  br label %200

43:                                               ; preds = %24
  call void @llvm.lifetime.start.p0(i64 8, ptr %10) #8
  %44 = load ptr, ptr %5, align 8
  store ptr %44, ptr %10, align 8
  call void @llvm.lifetime.start.p0(i64 8, ptr %11) #8
  call void @llvm.lifetime.start.p0(i64 8, ptr %12) #8
  store ptr null, ptr %12, align 8
  %45 = load ptr, ptr %7, align 8
  %46 = icmp ne ptr %45, null
  br i1 %46, label %47, label %49

47:                                               ; preds = %43
  %48 = load ptr, ptr %7, align 8
  store i8 1, ptr %48, align 1
  br label %49

49:                                               ; preds = %47, %43
  %50 = load i8, ptr %6, align 1, !range !6, !noundef !7
  %51 = trunc i8 %50 to i1
  br i1 %51, label %52, label %58

52:                                               ; preds = %49
  %53 = load ptr, ptr %10, align 8
  %54 = getelementptr inbounds nuw %struct.GroupingSet, ptr %53, i32 0, i32 1
  %55 = load i32, ptr %54, align 4
  %56 = icmp eq i32 %55, 0
  br i1 %56, label %57, label %58

57:                                               ; preds = %52
  store ptr null, ptr %4, align 8
  store i32 1, ptr %9, align 4
  br label %137

58:                                               ; preds = %52, %49
  call void @llvm.lifetime.start.p0(i64 16, ptr %13) #8
  %59 = getelementptr inbounds nuw %struct.ForEachState, ptr %13, i32 0, i32 0
  %60 = load ptr, ptr %10, align 8
  %61 = getelementptr inbounds nuw %struct.GroupingSet, ptr %60, i32 0, i32 2
  %62 = load ptr, ptr %61, align 8
  store ptr %62, ptr %59, align 8
  %63 = getelementptr inbounds nuw %struct.ForEachState, ptr %13, i32 0, i32 1
  store i32 0, ptr %63, align 8
  %64 = getelementptr i8, ptr %13, i64 12
  call void @llvm.memset.p0.i64(ptr align 4 %64, i8 0, i64 4, i1 false)
  br label %65

65:                                               ; preds = %114, %58
  %66 = getelementptr inbounds nuw %struct.ForEachState, ptr %13, i32 0, i32 0
  %67 = load ptr, ptr %66, align 8
  %68 = icmp ne ptr %67, null
  br i1 %68, label %69, label %86

69:                                               ; preds = %65
  %70 = getelementptr inbounds nuw %struct.ForEachState, ptr %13, i32 0, i32 1
  %71 = load i32, ptr %70, align 8
  %72 = getelementptr inbounds nuw %struct.ForEachState, ptr %13, i32 0, i32 0
  %73 = load ptr, ptr %72, align 8
  %74 = getelementptr inbounds nuw %struct.List, ptr %73, i32 0, i32 1
  %75 = load i32, ptr %74, align 4
  %76 = icmp slt i32 %71, %75
  br i1 %76, label %77, label %86

77:                                               ; preds = %69
  %78 = getelementptr inbounds nuw %struct.ForEachState, ptr %13, i32 0, i32 0
  %79 = load ptr, ptr %78, align 8
  %80 = getelementptr inbounds nuw %struct.List, ptr %79, i32 0, i32 3
  %81 = load ptr, ptr %80, align 8
  %82 = getelementptr inbounds nuw %struct.ForEachState, ptr %13, i32 0, i32 1
  %83 = load i32, ptr %82, align 8
  %84 = sext i32 %83 to i64
  %85 = getelementptr inbounds %union.ListCell, ptr %81, i64 %84
  store ptr %85, ptr %11, align 8
  br label %87

86:                                               ; preds = %69, %65
  store ptr null, ptr %11, align 8
  br label %87

87:                                               ; preds = %86, %77
  %88 = phi i32 [ 1, %77 ], [ 0, %86 ]
  %89 = icmp ne i32 %88, 0
  br i1 %89, label %91, label %90

90:                                               ; preds = %87
  store i32 3, ptr %9, align 4
  call void @llvm.lifetime.end.p0(i64 16, ptr %13) #8
  br label %118

91:                                               ; preds = %87
  call void @llvm.lifetime.start.p0(i64 8, ptr %14) #8
  %92 = load ptr, ptr %11, align 8
  %93 = load ptr, ptr %92, align 8
  store ptr %93, ptr %14, align 8
  call void @llvm.lifetime.start.p0(i64 8, ptr %15) #8
  %94 = load ptr, ptr %14, align 8
  %95 = call ptr @flatten_grouping_sets(ptr noundef %94, i1 noundef zeroext false, ptr noundef null)
  store ptr %95, ptr %15, align 8
  %96 = load ptr, ptr %14, align 8
  %97 = getelementptr inbounds nuw %struct.Node, ptr %96, i32 0, i32 0
  %98 = load i32, ptr %97, align 4
  %99 = icmp eq i32 %98, 107
  br i1 %99, label %100, label %109

100:                                              ; preds = %91
  %101 = load ptr, ptr %14, align 8
  %102 = getelementptr inbounds nuw %struct.GroupingSet, ptr %101, i32 0, i32 1
  %103 = load i32, ptr %102, align 4
  %104 = icmp eq i32 %103, 4
  br i1 %104, label %105, label %109

105:                                              ; preds = %100
  %106 = load ptr, ptr %12, align 8
  %107 = load ptr, ptr %15, align 8
  %108 = call ptr @list_concat(ptr noundef %106, ptr noundef %107)
  store ptr %108, ptr %12, align 8
  br label %113

109:                                              ; preds = %100, %91
  %110 = load ptr, ptr %12, align 8
  %111 = load ptr, ptr %15, align 8
  %112 = call ptr @lappend(ptr noundef %110, ptr noundef %111)
  store ptr %112, ptr %12, align 8
  br label %113

113:                                              ; preds = %109, %105
  call void @llvm.lifetime.end.p0(i64 8, ptr %15) #8
  call void @llvm.lifetime.end.p0(i64 8, ptr %14) #8
  br label %114

114:                                              ; preds = %113
  %115 = getelementptr inbounds nuw %struct.ForEachState, ptr %13, i32 0, i32 1
  %116 = load i32, ptr %115, align 8
  %117 = add i32 %116, 1
  store i32 %117, ptr %115, align 8
  br label %65, !llvm.loop !19

118:                                              ; preds = %90
  %119 = load i8, ptr %6, align 1, !range !6, !noundef !7
  %120 = trunc i8 %119 to i1
  br i1 %120, label %126, label %121

121:                                              ; preds = %118
  %122 = load ptr, ptr %10, align 8
  %123 = getelementptr inbounds nuw %struct.GroupingSet, ptr %122, i32 0, i32 1
  %124 = load i32, ptr %123, align 4
  %125 = icmp ne i32 %124, 4
  br i1 %125, label %126, label %135

126:                                              ; preds = %121, %118
  %127 = load ptr, ptr %10, align 8
  %128 = getelementptr inbounds nuw %struct.GroupingSet, ptr %127, i32 0, i32 1
  %129 = load i32, ptr %128, align 4
  %130 = load ptr, ptr %12, align 8
  %131 = load ptr, ptr %10, align 8
  %132 = getelementptr inbounds nuw %struct.GroupingSet, ptr %131, i32 0, i32 3
  %133 = load i32, ptr %132, align 8
  %134 = call ptr @makeGroupingSet(i32 noundef %129, ptr noundef %130, i32 noundef %133)
  store ptr %134, ptr %4, align 8
  store i32 1, ptr %9, align 4
  br label %137

135:                                              ; preds = %121
  %136 = load ptr, ptr %12, align 8
  store ptr %136, ptr %4, align 8
  store i32 1, ptr %9, align 4
  br label %137

137:                                              ; preds = %135, %126, %57
  call void @llvm.lifetime.end.p0(i64 8, ptr %12) #8
  call void @llvm.lifetime.end.p0(i64 8, ptr %11) #8
  call void @llvm.lifetime.end.p0(i64 8, ptr %10) #8
  br label %202

138:                                              ; preds = %24
  call void @llvm.lifetime.start.p0(i64 8, ptr %16) #8
  store ptr null, ptr %16, align 8
  call void @llvm.lifetime.start.p0(i64 8, ptr %17) #8
  call void @llvm.lifetime.start.p0(i64 16, ptr %18) #8
  %139 = getelementptr inbounds nuw %struct.ForEachState, ptr %18, i32 0, i32 0
  %140 = load ptr, ptr %5, align 8
  store ptr %140, ptr %139, align 8
  %141 = getelementptr inbounds nuw %struct.ForEachState, ptr %18, i32 0, i32 1
  store i32 0, ptr %141, align 8
  %142 = getelementptr i8, ptr %18, i64 12
  call void @llvm.memset.p0.i64(ptr align 4 %142, i8 0, i64 4, i1 false)
  br label %143

143:                                              ; preds = %193, %138
  %144 = getelementptr inbounds nuw %struct.ForEachState, ptr %18, i32 0, i32 0
  %145 = load ptr, ptr %144, align 8
  %146 = icmp ne ptr %145, null
  br i1 %146, label %147, label %164

147:                                              ; preds = %143
  %148 = getelementptr inbounds nuw %struct.ForEachState, ptr %18, i32 0, i32 1
  %149 = load i32, ptr %148, align 8
  %150 = getelementptr inbounds nuw %struct.ForEachState, ptr %18, i32 0, i32 0
  %151 = load ptr, ptr %150, align 8
  %152 = getelementptr inbounds nuw %struct.List, ptr %151, i32 0, i32 1
  %153 = load i32, ptr %152, align 4
  %154 = icmp slt i32 %149, %153
  br i1 %154, label %155, label %164

155:                                              ; preds = %147
  %156 = getelementptr inbounds nuw %struct.ForEachState, ptr %18, i32 0, i32 0
  %157 = load ptr, ptr %156, align 8
  %158 = getelementptr inbounds nuw %struct.List, ptr %157, i32 0, i32 3
  %159 = load ptr, ptr %158, align 8
  %160 = getelementptr inbounds nuw %struct.ForEachState, ptr %18, i32 0, i32 1
  %161 = load i32, ptr %160, align 8
  %162 = sext i32 %161 to i64
  %163 = getelementptr inbounds %union.ListCell, ptr %159, i64 %162
  store ptr %163, ptr %17, align 8
  br label %165

164:                                              ; preds = %147, %143
  store ptr null, ptr %17, align 8
  br label %165

165:                                              ; preds = %164, %155
  %166 = phi i32 [ 1, %155 ], [ 0, %164 ]
  %167 = icmp ne i32 %166, 0
  br i1 %167, label %169, label %168

168:                                              ; preds = %165
  store i32 6, ptr %9, align 4
  call void @llvm.lifetime.end.p0(i64 16, ptr %18) #8
  br label %197

169:                                              ; preds = %165
  call void @llvm.lifetime.start.p0(i64 8, ptr %19) #8
  %170 = load ptr, ptr %17, align 8
  %171 = load ptr, ptr %170, align 8
  %172 = load i8, ptr %6, align 1, !range !6, !noundef !7
  %173 = trunc i8 %172 to i1
  %174 = load ptr, ptr %7, align 8
  %175 = call ptr @flatten_grouping_sets(ptr noundef %171, i1 noundef zeroext %173, ptr noundef %174)
  store ptr %175, ptr %19, align 8
  %176 = load ptr, ptr %19, align 8
  %177 = icmp ne ptr %176, null
  br i1 %177, label %178, label %192

178:                                              ; preds = %169
  %179 = load ptr, ptr %19, align 8
  %180 = getelementptr inbounds nuw %struct.Node, ptr %179, i32 0, i32 0
  %181 = load i32, ptr %180, align 4
  %182 = icmp eq i32 %181, 1
  br i1 %182, label %183, label %187

183:                                              ; preds = %178
  %184 = load ptr, ptr %16, align 8
  %185 = load ptr, ptr %19, align 8
  %186 = call ptr @list_concat(ptr noundef %184, ptr noundef %185)
  store ptr %186, ptr %16, align 8
  br label %191

187:                                              ; preds = %178
  %188 = load ptr, ptr %16, align 8
  %189 = load ptr, ptr %19, align 8
  %190 = call ptr @lappend(ptr noundef %188, ptr noundef %189)
  store ptr %190, ptr %16, align 8
  br label %191

191:                                              ; preds = %187, %183
  br label %192

192:                                              ; preds = %191, %169
  call void @llvm.lifetime.end.p0(i64 8, ptr %19) #8
  br label %193

193:                                              ; preds = %192
  %194 = getelementptr inbounds nuw %struct.ForEachState, ptr %18, i32 0, i32 1
  %195 = load i32, ptr %194, align 8
  %196 = add i32 %195, 1
  store i32 %196, ptr %194, align 8
  br label %143, !llvm.loop !20

197:                                              ; preds = %168
  %198 = load ptr, ptr %16, align 8
  store ptr %198, ptr %4, align 8
  store i32 1, ptr %9, align 4
  call void @llvm.lifetime.end.p0(i64 8, ptr %17) #8
  call void @llvm.lifetime.end.p0(i64 8, ptr %16) #8
  br label %202

199:                                              ; preds = %24
  br label %200

200:                                              ; preds = %199, %42
  %201 = load ptr, ptr %5, align 8
  store ptr %201, ptr %4, align 8
  br label %202

202:                                              ; preds = %200, %197, %137, %40, %23
  %203 = load ptr, ptr %4, align 8
  ret ptr %203

204:                                              ; preds = %40
  unreachable
}