; Function Attrs: nounwind uwtable
define internal fastcc ptr @flatten_grouping_sets(ptr noundef readonly captures(address_is_null, ret: address, provenance) %0, i1 noundef zeroext %1, ptr noundef captures(address_is_null) %2) unnamed_addr #0 {
  tail call void @check_stack_depth() #9
  %4 = icmp eq ptr %0, null
  br i1 %4, label %.thread, label %.lr.ph

.lr.ph:                                           ; preds = %3, %tailrecurse
  %.tr7484 = phi ptr [ null, %tailrecurse ], [ %2, %3 ]
  %.tr7383 = phi i1 [ false, %tailrecurse ], [ %1, %3 ]
  %.tr82 = phi ptr [ %14, %tailrecurse ], [ %0, %3 ]
  %5 = load i32, ptr %.tr82, align 4
  switch i32 %5, label %.thread [
    i32 36, label %9
    i32 107, label %16
    i32 1, label %.preheader
  ]

.preheader:                                       ; preds = %.lr.ph
  %6 = getelementptr inbounds nuw i8, ptr %.tr82, i64 4
  %7 = load i32, ptr %6, align 4
  %.not88 = icmp sgt i32 %7, 0
  br i1 %.not88, label %.lr.ph91, label %.thread

.lr.ph91:                                         ; preds = %.preheader
  %8 = getelementptr inbounds nuw i8, ptr %.tr82, i64 16
  br label %51

9:                                                ; preds = %.lr.ph
  %10 = getelementptr inbounds nuw i8, ptr %.tr82, i64 20
  %11 = load i32, ptr %10, align 4
  %12 = icmp eq i32 %11, 2
  br i1 %12, label %tailrecurse, label %.thread

tailrecurse:                                      ; preds = %9
  %13 = getelementptr inbounds nuw i8, ptr %.tr82, i64 8
  %14 = load ptr, ptr %13, align 8
  tail call void @check_stack_depth() #9
  %15 = icmp eq ptr %14, null
  br i1 %15, label %.thread, label %.lr.ph

16:                                               ; preds = %.lr.ph
  %.not61 = icmp eq ptr %.tr7484, null
  br i1 %.not61, label %18, label %17

17:                                               ; preds = %16
  store i8 1, ptr %.tr7484, align 1
  br label %18

18:                                               ; preds = %17, %16
  br i1 %.tr7383, label %19, label %23

19:                                               ; preds = %18
  %20 = getelementptr inbounds nuw i8, ptr %.tr82, i64 4
  %21 = load i32, ptr %20, align 4
  %22 = icmp eq i32 %21, 0
  br i1 %22, label %.thread, label %23

23:                                               ; preds = %19, %18
  %24 = getelementptr inbounds nuw i8, ptr %.tr82, i64 8
  %25 = load ptr, ptr %24, align 8
  %26 = getelementptr inbounds nuw i8, ptr %25, i64 4
  %.not62 = icmp eq ptr %25, null
  br i1 %.not62, label %._crit_edge, label %.lr.ph95

.lr.ph95:                                         ; preds = %23
  %27 = getelementptr inbounds nuw i8, ptr %25, i64 16
  %28 = load i32, ptr %26, align 4
  %29 = icmp sgt i32 %28, 0
  br i1 %29, label %.lr.ph102, label %._crit_edge

._crit_edge:                                      ; preds = %44, %.lr.ph95, %23
  %.054.lcssa = phi ptr [ null, %23 ], [ null, %.lr.ph95 ], [ %.155, %44 ]
  %.phi.trans.insert = getelementptr inbounds nuw i8, ptr %.tr82, i64 4
  %.pre = load i32, ptr %.phi.trans.insert, align 4
  %.not64 = icmp ne i32 %.pre, 4
  %or.cond.not = select i1 %.tr7383, i1 true, i1 %.not64
  br i1 %or.cond.not, label %._crit_edge._crit_edge, label %.thread

.lr.ph102:                                        ; preds = %.lr.ph95, %44
  %indvars.iv112 = phi i64 [ %indvars.iv.next113, %44 ], [ 0, %.lr.ph95 ]
  %.05494100 = phi ptr [ %.155, %44 ], [ null, %.lr.ph95 ]
  %30 = load ptr, ptr %27, align 8
  %31 = getelementptr inbounds nuw %union.ListCell, ptr %30, i64 %indvars.iv112
  %32 = load ptr, ptr %31, align 8
  %33 = tail call fastcc ptr @flatten_grouping_sets(ptr noundef %32, i1 noundef zeroext false, ptr noundef null)
  %34 = load i32, ptr %32, align 4
  %35 = icmp eq i32 %34, 107
  br i1 %35, label %36, label %42

36:                                               ; preds = %.lr.ph102
  %37 = getelementptr inbounds nuw i8, ptr %32, i64 4
  %38 = load i32, ptr %37, align 4
  %39 = icmp eq i32 %38, 4
  br i1 %39, label %40, label %42

40:                                               ; preds = %36
  %41 = tail call ptr @list_concat(ptr noundef %.05494100, ptr noundef %33) #9
  br label %44

42:                                               ; preds = %36, %.lr.ph102
  %43 = tail call ptr @lappend(ptr noundef %.05494100, ptr noundef %33) #9
  br label %44

44:                                               ; preds = %42, %40
  %.155 = phi ptr [ %41, %40 ], [ %43, %42 ]
  %indvars.iv.next113 = add nuw nsw i64 %indvars.iv112, 1
  %45 = load i32, ptr %26, align 4
  %46 = sext i32 %45 to i64
  %47 = icmp slt i64 %indvars.iv.next113, %46
  br i1 %47, label %.lr.ph102, label %._crit_edge

._crit_edge._crit_edge:                           ; preds = %._crit_edge
  %48 = getelementptr inbounds nuw i8, ptr %.tr82, i64 16
  %49 = load i32, ptr %48, align 8
  %50 = tail call ptr @makeGroupingSet(i32 noundef %.pre, ptr noundef %.054.lcssa, i32 noundef %49) #9
  br label %.thread

51:                                               ; preds = %.lr.ph91, %63
  %indvars.iv = phi i64 [ 0, %.lr.ph91 ], [ %indvars.iv.next, %63 ]
  %.05289 = phi ptr [ null, %.lr.ph91 ], [ %.153, %63 ]
  %52 = load ptr, ptr %8, align 8
  %53 = getelementptr inbounds nuw %union.ListCell, ptr %52, i64 %indvars.iv
  %54 = load ptr, ptr %53, align 8
  %55 = tail call fastcc ptr @flatten_grouping_sets(ptr noundef %54, i1 noundef zeroext %.tr7383, ptr noundef %.tr7484)
  %.not60 = icmp eq ptr %55, null
  br i1 %.not60, label %63, label %56

56:                                               ; preds = %51
  %57 = load i32, ptr %55, align 4
  %58 = icmp eq i32 %57, 1
  br i1 %58, label %59, label %61

59:                                               ; preds = %56
  %60 = tail call ptr @list_concat(ptr noundef %.05289, ptr noundef nonnull %55) #9
  br label %63

61:                                               ; preds = %56
  %62 = tail call ptr @lappend(ptr noundef %.05289, ptr noundef nonnull %55) #9
  br label %63

63:                                               ; preds = %59, %61, %51
  %.153 = phi ptr [ %60, %59 ], [ %62, %61 ], [ %.05289, %51 ]
  %indvars.iv.next = add nuw nsw i64 %indvars.iv, 1
  %64 = load i32, ptr %6, align 4
  %65 = sext i32 %64 to i64
  %.not = icmp slt i64 %indvars.iv.next, %65
  br i1 %.not, label %51, label %.thread, !llvm.loop !16

.thread:                                          ; preds = %tailrecurse, %.lr.ph, %9, %63, %._crit_edge, %3, %.preheader, %._crit_edge._crit_edge, %19
  %.0 = phi ptr [ %50, %._crit_edge._crit_edge ], [ null, %19 ], [ null, %.preheader ], [ null, %3 ], [ %.054.lcssa, %._crit_edge ], [ %.153, %63 ], [ null, %tailrecurse ], [ %.tr82, %.lr.ph ], [ %.tr82, %9 ]
  ret ptr %.0
}